; ModuleID = '52/969.c'
source_filename = "52/969.c"
target datalayout = "e-m:e-p270:32:32-p271:32:32-p272:64:64-i64:64-f80:128-n8:16:32:64-S128"
target triple = "x86_64-pc-linux-gnu"

@.str = private unnamed_addr constant [3 x i8] c"%d\00", align 1
@.str.1 = private unnamed_addr constant [4 x i8] c" %d\00", align 1
@.str.2 = private unnamed_addr constant [5 x i8] c"%d%d\00", align 1

; Function Attrs: noinline nounwind uwtable
define dso_local void @move(i32* %0, i32 %1, i32 %2) #0 {
  %4 = alloca i32*, align 8
  %5 = alloca i32, align 4
  %6 = alloca i32, align 4
  %7 = alloca i32, align 4
  %8 = alloca i32, align 4
  store i32* %0, i32** %4, align 8
  store i32 %1, i32* %5, align 4
  store i32 %2, i32* %6, align 4
  %9 = load i32*, i32** %4, align 8
  %10 = load i32, i32* %5, align 4
  %11 = sext i32 %10 to i64
  %12 = getelementptr inbounds i32, i32* %9, i64 %11
  %13 = getelementptr inbounds i32, i32* %12, i64 -1
  %14 = load i32, i32* %13, align 4
  store i32 %14, i32* %8, align 4
  %15 = load i32, i32* %5, align 4
  %16 = sub nsw i32 %15, 1
  store i32 %16, i32* %7, align 4
  br label %17

17:                                               ; preds = %31, %3
  %18 = load i32, i32* %7, align 4
  %19 = icmp sge i32 %18, 0
  br i1 %19, label %20, label %34

20:                                               ; preds = %17
  %21 = load i32*, i32** %4, align 8
  %22 = load i32, i32* %7, align 4
  %23 = sext i32 %22 to i64
  %24 = getelementptr inbounds i32, i32* %21, i64 %23
  %25 = getelementptr inbounds i32, i32* %24, i64 -1
  %26 = load i32, i32* %25, align 4
  %27 = load i32*, i32** %4, align 8
  %28 = load i32, i32* %7, align 4
  %29 = sext i32 %28 to i64
  %30 = getelementptr inbounds i32, i32* %27, i64 %29
  store i32 %26, i32* %30, align 4
  br label %31

31:                                               ; preds = %20
  %32 = load i32, i32* %7, align 4
  %33 = add nsw i32 %32, -1
  store i32 %33, i32* %7, align 4
  br label %17

34:                                               ; preds = %17
  %35 = load i32, i32* %8, align 4
  %36 = load i32*, i32** %4, align 8
  store i32 %35, i32* %36, align 4
  %37 = load i32, i32* %6, align 4
  %38 = add nsw i32 %37, -1
  store i32 %38, i32* %6, align 4
  %39 = load i32, i32* %6, align 4
  %40 = icmp sgt i32 %39, 0
  br i1 %40, label %41, label %45

41:                                               ; preds = %34
  %42 = load i32*, i32** %4, align 8
  %43 = load i32, i32* %5, align 4
  %44 = load i32, i32* %6, align 4
  call void @move(i32* %42, i32 %43, i32 %44)
  br label %76

45:                                               ; preds = %34
  %46 = load i32, i32* %6, align 4
  %47 = icmp eq i32 %46, 0
  br i1 %47, label %48, label %75

48:                                               ; preds = %45
  store i32 0, i32* %7, align 4
  br label %49

49:                                               ; preds = %71, %48
  %50 = load i32, i32* %7, align 4
  %51 = load i32, i32* %5, align 4
  %52 = icmp slt i32 %50, %51
  br i1 %52, label %53, label %74

53:                                               ; preds = %49
  %54 = load i32, i32* %7, align 4
  %55 = icmp eq i32 %54, 0
  br i1 %55, label %56, label %63

56:                                               ; preds = %53
  %57 = load i32*, i32** %4, align 8
  %58 = load i32, i32* %7, align 4
  %59 = sext i32 %58 to i64
  %60 = getelementptr inbounds i32, i32* %57, i64 %59
  %61 = load i32, i32* %60, align 4
  %62 = call i32 (i8*, ...) @printf(i8* getelementptr inbounds ([3 x i8], [3 x i8]* @.str, i64 0, i64 0), i32 %61)
  br label %70

63:                                               ; preds = %53
  %64 = load i32*, i32** %4, align 8
  %65 = load i32, i32* %7, align 4
  %66 = sext i32 %65 to i64
  %67 = getelementptr inbounds i32, i32* %64, i64 %66
  %68 = load i32, i32* %67, align 4
  %69 = call i32 (i8*, ...) @printf(i8* getelementptr inbounds ([4 x i8], [4 x i8]* @.str.1, i64 0, i64 0), i32 %68)
  br label %70

70:                                               ; preds = %63, %56
  br label %71

71:                                               ; preds = %70
  %72 = load i32, i32* %7, align 4
  %73 = add nsw i32 %72, 1
  store i32 %73, i32* %7, align 4
  br label %49

74:                                               ; preds = %49
  br label %75

75:                                               ; preds = %74, %45
  br label %76

76:                                               ; preds = %75, %41
  ret void
}

declare dso_local i32 @printf(i8*, ...) #1

; Function Attrs: noinline nounwind uwtable
define dso_local void @main() #0 {
  %1 = alloca i32, align 4
  %2 = alloca i32, align 4
  %3 = alloca i32, align 4
  %4 = alloca [100 x i32], align 16
  %5 = alloca i32*, align 8
  %6 = call i32 (i8*, ...) @__isoc99_scanf(i8* getelementptr inbounds ([5 x i8], [5 x i8]* @.str.2, i64 0, i64 0), i32* %1, i32* %2)
  store i32 0, i32* %3, align 4
  br label %7

7:                                                ; preds = %16, %0
  %8 = load i32, i32* %3, align 4
  %9 = load i32, i32* %1, align 4
  %10 = icmp slt i32 %8, %9
  br i1 %10, label %11, label %19

11:                                               ; preds = %7
  %12 = load i32, i32* %3, align 4
  %13 = sext i32 %12 to i64
  %14 = getelementptr inbounds [100 x i32], [100 x i32]* %4, i64 0, i64 %13
  %15 = call i32 (i8*, ...) @__isoc99_scanf(i8* getelementptr inbounds ([3 x i8], [3 x i8]* @.str, i64 0, i64 0), i32* %14)
  br label %16

16:                                               ; preds = %11
  %17 = load i32, i32* %3, align 4
  %18 = add nsw i32 %17, 1
  store i32 %18, i32* %3, align 4
  br label %7

19:                                               ; preds = %7
  %20 = getelementptr inbounds [100 x i32], [100 x i32]* %4, i64 0, i64 0
  store i32* %20, i32** %5, align 8
  %21 = load i32*, i32** %5, align 8
  %22 = load i32, i32* %1, align 4
  %23 = load i32, i32* %2, align 4
  call void @move(i32* %21, i32 %22, i32 %23)
  ret void
}

declare dso_local i32 @__isoc99_scanf(i8*, ...) #1


!llvm.module.flags = !{!0}
!llvm.ident = !{!1}

!0 = !{i32 1, !"wchar_size", i32 4}
!1 = !{!"clang version 10.0.0-4ubuntu1 "}
